target datalayout = "e-m:e-p270:32:32-p271:32:32-p272:64:64-i64:64-i128:128-f80:128-n8:16:32:64-S128"
target triple = "x86_64-pc-linux-gnu"

%union.pthread_mutex_t = type { %struct.__pthread_mutex_s }
%struct.__pthread_mutex_s = type { i32, i32, i32, i32, i32, i16, i16, %struct.__pthread_internal_list }
%struct.__pthread_internal_list = type { ptr, ptr }

@session_lock = internal global %union.pthread_mutex_t zeroinitializer, align 8
@initRefCount = internal global i32 0, align 4
@inits_count_mutex = internal global %union.pthread_mutex_t zeroinitializer, align 8
@session_lock_valid = internal global i32 0, align 4

; Function Attrs: nounwind uwtable
define i32 @wolfSSL_Init() #0 {
  %1 = alloca i32, align 4
  %2 = alloca i32, align 4
  %3 = alloca i32, align 4
  call void @llvm.lifetime.start.p0(i64 4, ptr %2) #9
  store i32 1, ptr %2, align 4, !tbaa !7
  br label %4

4:                                                ; preds = %0
  br label %5

5:                                                ; preds = %4
  br label %6

6:                                                ; preds = %5
  %7 = call i32 @wc_LockMutex(ptr noundef @inits_count_mutex)
  %8 = icmp ne i32 %7, 0
  br i1 %8, label %9, label %13

9:                                                ; preds = %6
  br label %10

10:                                               ; preds = %9
  br label %11

11:                                               ; preds = %10
  br label %12

12:                                               ; preds = %11
  store i32 -106, ptr %1, align 4
  store i32 1, ptr %3, align 4
  br label %54

13:                                               ; preds = %6
  %14 = load i32, ptr %2, align 4, !tbaa !7
  %15 = icmp eq i32 %14, 1
  br i1 %15, label %16, label %39

16:                                               ; preds = %13
  %17 = load volatile i32, ptr @initRefCount, align 4, !tbaa !7
  %18 = icmp eq i32 %17, 0
  br i1 %18, label %19, label %39

19:                                               ; preds = %16
  %20 = call i32 @wolfCrypt_Init()
  %21 = icmp ne i32 %20, 0
  br i1 %21, label %22, label %26

22:                                               ; preds = %19
  br label %23

23:                                               ; preds = %22
  br label %24

24:                                               ; preds = %23
  br label %25

25:                                               ; preds = %24
  store i32 -228, ptr %2, align 4, !tbaa !7
  br label %26

26:                                               ; preds = %25, %19
  %27 = load i32, ptr %2, align 4, !tbaa !7
  %28 = icmp eq i32 %27, 1
  br i1 %28, label %29, label %38

29:                                               ; preds = %26
  %30 = call i32 @wc_InitRwLock(ptr noundef @session_lock)
  %31 = icmp ne i32 %30, 0
  br i1 %31, label %32, label %36

32:                                               ; preds = %29
  br label %33

33:                                               ; preds = %32
  br label %34

34:                                               ; preds = %33
  br label %35

35:                                               ; preds = %34
  store i32 -106, ptr %2, align 4, !tbaa !7
  br label %37

36:                                               ; preds = %29
  store i32 1, ptr @session_lock_valid, align 4, !tbaa !7
  br label %37

37:                                               ; preds = %36, %35
  br label %38

38:                                               ; preds = %37, %26
  br label %39

39:                                               ; preds = %38, %16, %13
  %40 = load i32, ptr %2, align 4, !tbaa !7
  %41 = icmp eq i32 %40, 1
  br i1 %41, label %42, label %45

42:                                               ; preds = %39
  %43 = load volatile i32, ptr @initRefCount, align 4, !tbaa !7
  %44 = add nsw i32 %43, 1
  store volatile i32 %44, ptr @initRefCount, align 4, !tbaa !7
  br label %46

45:                                               ; preds = %39
  store volatile i32 1, ptr @initRefCount, align 4, !tbaa !7
  br label %46

46:                                               ; preds = %45, %42
  %47 = call i32 @wc_UnLockMutex(ptr noundef @inits_count_mutex)
  %48 = load i32, ptr %2, align 4, !tbaa !7
  %49 = icmp ne i32 %48, 1
  br i1 %49, label %50, label %52

50:                                               ; preds = %46
  %51 = call i32 @wolfSSL_Cleanup()
  br label %52

52:                                               ; preds = %50, %46
  %53 = load i32, ptr %2, align 4, !tbaa !7
  store i32 %53, ptr %1, align 4
  store i32 1, ptr %3, align 4
  br label %54

54:                                               ; preds = %52, %12
  call void @llvm.lifetime.end.p0(i64 4, ptr %2) #9
  %55 = load i32, ptr %1, align 4
  ret i32 %55
}