; Function Attrs: nounwind uwtable
define range(i32 -228, 2) i32 @wolfSSL_Init() local_unnamed_addr #0 {
  %1 = tail call i32 @wc_LockMutex(ptr noundef nonnull @inits_count_mutex) #22
  %.not = icmp eq i32 %1, 0
  br i1 %.not, label %2, label %15

2:                                                ; preds = %0
  %3 = load volatile i32, ptr @initRefCount, align 4, !tbaa !3
  %4 = icmp eq i32 %3, 0
  br i1 %4, label %5, label %.thread16

5:                                                ; preds = %2
  %6 = tail call i32 @wolfCrypt_Init() #22
  %.not7 = icmp eq i32 %6, 0
  br i1 %.not7, label %7, label %.thread13

7:                                                ; preds = %5
  %8 = tail call i32 @wc_InitRwLock(ptr noundef nonnull @session_lock) #22
  %.not8 = icmp eq i32 %8, 0
  br i1 %.not8, label %9, label %.thread13

9:                                                ; preds = %7
  store i1 true, ptr @session_lock_valid, align 4
  br label %.thread16

.thread16:                                        ; preds = %9, %2
  %10 = load volatile i32, ptr @initRefCount, align 4, !tbaa !3
  %11 = add nsw i32 %10, 1
  store volatile i32 %11, ptr @initRefCount, align 4, !tbaa !3
  %12 = tail call i32 @wc_UnLockMutex(ptr noundef nonnull @inits_count_mutex) #22
  br label %15

.thread13:                                        ; preds = %5, %7
  %.015 = phi i32 [ -106, %7 ], [ -228, %5 ]
  store volatile i32 1, ptr @initRefCount, align 4, !tbaa !3
  %13 = tail call i32 @wc_UnLockMutex(ptr noundef nonnull @inits_count_mutex) #22
  %14 = tail call i32 @wolfSSL_Cleanup()
  br label %15

15:                                               ; preds = %.thread16, %.thread13, %0
  %.06 = phi i32 [ -106, %0 ], [ %.015, %.thread13 ], [ 1, %.thread16 ]
  ret i32 %.06
}